; ModuleID = '19/2486.c'
source_filename = "19/2486.c"
target datalayout = "e-m:e-p270:32:32-p271:32:32-p272:64:64-i64:64-f80:128-n8:16:32:64-S128"
target triple = "x86_64-pc-linux-gnu"

@__const.split.seps = private unnamed_addr constant [6 x i8] c" ,\09\0A.\00", align 1
@.str = private unnamed_addr constant [4 x i8] c"%s \00", align 1
@.str.1 = private unnamed_addr constant [3 x i8] c"%s\00", align 1

; Function Attrs: noinline nounwind uwtable
define dso_local i32 @split(i8* %0, [100 x i8]* %1) #0 {
  %3 = alloca i8*, align 8
  %4 = alloca [100 x i8]*, align 8
  %5 = alloca [6 x i8], align 1
  %6 = alloca i8*, align 8
  %7 = alloca i32, align 4
  store i8* %0, i8** %3, align 8
  store [100 x i8]* %1, [100 x i8]** %4, align 8
  %8 = bitcast [6 x i8]* %5 to i8*
  call void @llvm.memcpy.p0i8.p0i8.i64(i8* align 1 %8, i8* align 1 getelementptr inbounds ([6 x i8], [6 x i8]* @__const.split.seps, i32 0, i32 0), i64 6, i1 false)
  store i32 0, i32* %7, align 4
  %9 = load i8*, i8** %3, align 8
  %10 = getelementptr inbounds [6 x i8], [6 x i8]* %5, i64 0, i64 0
  %11 = call i8* @strtok(i8* %9, i8* %10) #5
  store i8* %11, i8** %6, align 8
  br label %12

12:                                               ; preds = %15, %2
  %13 = load i8*, i8** %6, align 8
  %14 = icmp ne i8* %13, null
  br i1 %14, label %15, label %26

15:                                               ; preds = %12
  %16 = load [100 x i8]*, [100 x i8]** %4, align 8
  %17 = load i32, i32* %7, align 4
  %18 = add nsw i32 %17, 1
  store i32 %18, i32* %7, align 4
  %19 = sext i32 %17 to i64
  %20 = getelementptr inbounds [100 x i8], [100 x i8]* %16, i64 %19
  %21 = getelementptr inbounds [100 x i8], [100 x i8]* %20, i64 0, i64 0
  %22 = load i8*, i8** %6, align 8
  %23 = call i8* @strcpy(i8* %21, i8* %22) #5
  %24 = getelementptr inbounds [6 x i8], [6 x i8]* %5, i64 0, i64 0
  %25 = call i8* @strtok(i8* null, i8* %24) #5
  store i8* %25, i8** %6, align 8
  br label %12

26:                                               ; preds = %12
  %27 = load i32, i32* %7, align 4
  ret i32 %27
}

; Function Attrs: argmemonly nounwind willreturn
declare void @llvm.memcpy.p0i8.p0i8.i64(i8* noalias nocapture writeonly, i8* noalias nocapture readonly, i64, i1 immarg) #1

; Function Attrs: nounwind
declare dso_local i8* @strtok(i8*, i8*) #2

; Function Attrs: nounwind
declare dso_local i8* @strcpy(i8*, i8*) #2

; Function Attrs: noinline nounwind uwtable
define dso_local i32 @main() #0 {
  %1 = alloca i32, align 4
  %2 = alloca [100 x i8], align 16
  %3 = alloca [100 x i8], align 16
  %4 = alloca [100 x i8], align 16
  %5 = alloca [50 x [100 x i8]], align 16
  %6 = alloca i32, align 4
  %7 = alloca i32, align 4
  %8 = alloca i32, align 4
  %9 = alloca [50 x i32], align 16
  store i32 0, i32* %1, align 4
  %10 = bitcast [50 x i32]* %9 to i8*
  call void @llvm.memset.p0i8.i64(i8* align 16 %10, i8 0, i64 200, i1 false)
  %11 = getelementptr inbounds [100 x i8], [100 x i8]* %2, i64 0, i64 0
  %12 = call i32 (i8*, ...) bitcast (i32 (...)* @gets to i32 (i8*, ...)*)(i8* %11)
  %13 = getelementptr inbounds [100 x i8], [100 x i8]* %3, i64 0, i64 0
  %14 = call i32 (i8*, ...) bitcast (i32 (...)* @gets to i32 (i8*, ...)*)(i8* %13)
  %15 = getelementptr inbounds [100 x i8], [100 x i8]* %4, i64 0, i64 0
  %16 = call i32 (i8*, ...) bitcast (i32 (...)* @gets to i32 (i8*, ...)*)(i8* %15)
  %17 = getelementptr inbounds [100 x i8], [100 x i8]* %2, i64 0, i64 0
  %18 = getelementptr inbounds [50 x [100 x i8]], [50 x [100 x i8]]* %5, i64 0, i64 0
  %19 = call i32 @split(i8* %17, [100 x i8]* %18)
  store i32 %19, i32* %8, align 4
  store i32 0, i32* %6, align 4
  br label %20

20:                                               ; preds = %41, %0
  %21 = load i32, i32* %6, align 4
  %22 = load i32, i32* %8, align 4
  %23 = icmp slt i32 %21, %22
  br i1 %23, label %24, label %44

24:                                               ; preds = %20
  %25 = load i32, i32* %6, align 4
  %26 = sext i32 %25 to i64
  %27 = getelementptr inbounds [50 x [100 x i8]], [50 x [100 x i8]]* %5, i64 0, i64 %26
  %28 = getelementptr inbounds [100 x i8], [100 x i8]* %27, i64 0, i64 0
  %29 = getelementptr inbounds [100 x i8], [100 x i8]* %3, i64 0, i64 0
  %30 = call i32 @strcmp(i8* %28, i8* %29) #6
  %31 = icmp eq i32 %30, 0
  br i1 %31, label %32, label %39

32:                                               ; preds = %24
  %33 = load i32, i32* %6, align 4
  %34 = sext i32 %33 to i64
  %35 = getelementptr inbounds [50 x [100 x i8]], [50 x [100 x i8]]* %5, i64 0, i64 %34
  %36 = getelementptr inbounds [100 x i8], [100 x i8]* %35, i64 0, i64 0
  %37 = getelementptr inbounds [100 x i8], [100 x i8]* %4, i64 0, i64 0
  %38 = call i8* @strcpy(i8* %36, i8* %37) #5
  br label %40

39:                                               ; preds = %24
  br label %41

40:                                               ; preds = %32
  br label %41

41:                                               ; preds = %40, %39
  %42 = load i32, i32* %6, align 4
  %43 = add nsw i32 %42, 1
  store i32 %43, i32* %6, align 4
  br label %20

44:                                               ; preds = %20
  store i32 0, i32* %6, align 4
  br label %45

45:                                               ; preds = %56, %44
  %46 = load i32, i32* %6, align 4
  %47 = load i32, i32* %8, align 4
  %48 = sub nsw i32 %47, 1
  %49 = icmp slt i32 %46, %48
  br i1 %49, label %50, label %59

50:                                               ; preds = %45
  %51 = load i32, i32* %6, align 4
  %52 = sext i32 %51 to i64
  %53 = getelementptr inbounds [50 x [100 x i8]], [50 x [100 x i8]]* %5, i64 0, i64 %52
  %54 = getelementptr inbounds [100 x i8], [100 x i8]* %53, i64 0, i64 0
  %55 = call i32 (i8*, ...) @printf(i8* getelementptr inbounds ([4 x i8], [4 x i8]* @.str, i64 0, i64 0), i8* %54)
  br label %56

56:                                               ; preds = %50
  %57 = load i32, i32* %6, align 4
  %58 = add nsw i32 %57, 1
  store i32 %58, i32* %6, align 4
  br label %45

59:                                               ; preds = %45
  %60 = load i32, i32* %8, align 4
  %61 = sub nsw i32 %60, 1
  %62 = sext i32 %61 to i64
  %63 = getelementptr inbounds [50 x [100 x i8]], [50 x [100 x i8]]* %5, i64 0, i64 %62
  %64 = getelementptr inbounds [100 x i8], [100 x i8]* %63, i64 0, i64 0
  %65 = call i32 (i8*, ...) @printf(i8* getelementptr inbounds ([3 x i8], [3 x i8]* @.str.1, i64 0, i64 0), i8* %64)
  ret i32 0
}

; Function Attrs: argmemonly nounwind willreturn
declare void @llvm.memset.p0i8.i64(i8* nocapture writeonly, i8, i64, i1 immarg) #1

declare dso_local i32 @gets(...) #3

; Function Attrs: nounwind readonly
declare dso_local i32 @strcmp(i8*, i8*) #4

declare dso_local i32 @printf(i8*, ...) #3


!llvm.module.flags = !{!0}
!llvm.ident = !{!1}

!0 = !{i32 1, !"wchar_size", i32 4}
!1 = !{!"clang version 10.0.0-4ubuntu1 "}
